; ModuleID = '4/1745.c'
source_filename = "4/1745.c"
target datalayout = "e-m:e-p270:32:32-p271:32:32-p272:64:64-i64:64-f80:128-n8:16:32:64-S128"
target triple = "x86_64-pc-linux-gnu"

@prt.t = internal global i32 0, align 4
@.str = private unnamed_addr constant [4 x i8] c"%d\0A\00", align 1
@.str.1 = private unnamed_addr constant [6 x i8] c"%d %d\00", align 1
@.str.2 = private unnamed_addr constant [3 x i8] c"%d\00", align 1

; Function Attrs: noinline nounwind uwtable
define dso_local void @prt([100 x i32]* %0, i32 %1, i32 %2, i32 %3, i32 %4) #0 {
  %6 = alloca [100 x i32]*, align 8
  %7 = alloca i32, align 4
  %8 = alloca i32, align 4
  %9 = alloca i32, align 4
  %10 = alloca i32, align 4
  store [100 x i32]* %0, [100 x i32]** %6, align 8
  store i32 %1, i32* %7, align 4
  store i32 %2, i32* %8, align 4
  store i32 %3, i32* %9, align 4
  store i32 %4, i32* %10, align 4
  %11 = load [100 x i32]*, [100 x i32]** %6, align 8
  %12 = load i32, i32* %7, align 4
  %13 = sext i32 %12 to i64
  %14 = getelementptr inbounds [100 x i32], [100 x i32]* %11, i64 %13
  %15 = load i32, i32* %8, align 4
  %16 = sext i32 %15 to i64
  %17 = getelementptr inbounds [100 x i32], [100 x i32]* %14, i64 0, i64 %16
  %18 = load i32, i32* %17, align 4
  %19 = call i32 (i8*, ...) @printf(i8* getelementptr inbounds ([4 x i8], [4 x i8]* @.str, i64 0, i64 0), i32 %18)
  %20 = load i32, i32* %7, align 4
  %21 = load i32, i32* %9, align 4
  %22 = sub nsw i32 %21, 1
  %23 = icmp eq i32 %20, %22
  br i1 %23, label %27, label %24

24:                                               ; preds = %5
  %25 = load i32, i32* %8, align 4
  %26 = icmp eq i32 %25, 0
  br i1 %26, label %27, label %57

27:                                               ; preds = %24, %5
  %28 = load i32, i32* @prt.t, align 4
  %29 = add nsw i32 %28, 1
  store i32 %29, i32* @prt.t, align 4
  %30 = load i32, i32* @prt.t, align 4
  %31 = load i32, i32* %10, align 4
  %32 = icmp slt i32 %30, %31
  br i1 %32, label %33, label %38

33:                                               ; preds = %27
  %34 = load [100 x i32]*, [100 x i32]** %6, align 8
  %35 = load i32, i32* @prt.t, align 4
  %36 = load i32, i32* %9, align 4
  %37 = load i32, i32* %10, align 4
  call void @prt([100 x i32]* %34, i32 0, i32 %35, i32 %36, i32 %37)
  br label %56

38:                                               ; preds = %27
  %39 = load i32, i32* @prt.t, align 4
  %40 = load i32, i32* %9, align 4
  %41 = load i32, i32* %10, align 4
  %42 = add nsw i32 %40, %41
  %43 = sub nsw i32 %42, 1
  %44 = icmp slt i32 %39, %43
  br i1 %44, label %45, label %55

45:                                               ; preds = %38
  %46 = load [100 x i32]*, [100 x i32]** %6, align 8
  %47 = load i32, i32* @prt.t, align 4
  %48 = load i32, i32* %10, align 4
  %49 = sub nsw i32 %47, %48
  %50 = add nsw i32 %49, 1
  %51 = load i32, i32* %10, align 4
  %52 = sub nsw i32 %51, 1
  %53 = load i32, i32* %9, align 4
  %54 = load i32, i32* %10, align 4
  call void @prt([100 x i32]* %46, i32 %50, i32 %52, i32 %53, i32 %54)
  br label %55

55:                                               ; preds = %45, %38
  br label %56

56:                                               ; preds = %55, %33
  br label %65

57:                                               ; preds = %24
  %58 = load [100 x i32]*, [100 x i32]** %6, align 8
  %59 = load i32, i32* %7, align 4
  %60 = add nsw i32 %59, 1
  %61 = load i32, i32* %8, align 4
  %62 = sub nsw i32 %61, 1
  %63 = load i32, i32* %9, align 4
  %64 = load i32, i32* %10, align 4
  call void @prt([100 x i32]* %58, i32 %60, i32 %62, i32 %63, i32 %64)
  br label %65

65:                                               ; preds = %57, %56
  ret void
}

declare dso_local i32 @printf(i8*, ...) #1

; Function Attrs: noinline nounwind uwtable
define dso_local void @main() #0 {
  %1 = alloca i32, align 4
  %2 = alloca i32, align 4
  %3 = alloca i32, align 4
  %4 = alloca i32, align 4
  %5 = alloca [100 x [100 x i32]], align 16
  %6 = call i32 (i8*, ...) @__isoc99_scanf(i8* getelementptr inbounds ([6 x i8], [6 x i8]* @.str.1, i64 0, i64 0), i32* %3, i32* %4)
  store i32 0, i32* %1, align 4
  br label %7

7:                                                ; preds = %28, %0
  %8 = load i32, i32* %1, align 4
  %9 = load i32, i32* %3, align 4
  %10 = icmp slt i32 %8, %9
  br i1 %10, label %11, label %31

11:                                               ; preds = %7
  store i32 0, i32* %2, align 4
  br label %12

12:                                               ; preds = %24, %11
  %13 = load i32, i32* %2, align 4
  %14 = load i32, i32* %4, align 4
  %15 = icmp slt i32 %13, %14
  br i1 %15, label %16, label %27

16:                                               ; preds = %12
  %17 = load i32, i32* %1, align 4
  %18 = sext i32 %17 to i64
  %19 = getelementptr inbounds [100 x [100 x i32]], [100 x [100 x i32]]* %5, i64 0, i64 %18
  %20 = load i32, i32* %2, align 4
  %21 = sext i32 %20 to i64
  %22 = getelementptr inbounds [100 x i32], [100 x i32]* %19, i64 0, i64 %21
  %23 = call i32 (i8*, ...) @__isoc99_scanf(i8* getelementptr inbounds ([3 x i8], [3 x i8]* @.str.2, i64 0, i64 0), i32* %22)
  br label %24

24:                                               ; preds = %16
  %25 = load i32, i32* %2, align 4
  %26 = add nsw i32 %25, 1
  store i32 %26, i32* %2, align 4
  br label %12

27:                                               ; preds = %12
  br label %28

28:                                               ; preds = %27
  %29 = load i32, i32* %1, align 4
  %30 = add nsw i32 %29, 1
  store i32 %30, i32* %1, align 4
  br label %7

31:                                               ; preds = %7
  %32 = getelementptr inbounds [100 x [100 x i32]], [100 x [100 x i32]]* %5, i64 0, i64 0
  %33 = load i32, i32* %3, align 4
  %34 = load i32, i32* %4, align 4
  call void @prt([100 x i32]* %32, i32 0, i32 0, i32 %33, i32 %34)
  ret void
}

declare dso_local i32 @__isoc99_scanf(i8*, ...) #1


!llvm.module.flags = !{!0}
!llvm.ident = !{!1}

!0 = !{i32 1, !"wchar_size", i32 4}
!1 = !{!"clang version 10.0.0-4ubuntu1 "}
